Certificate:
    Data:
        Version: 3 (0x2)
        Serial Number: 0 (0x0)
        Signature Algorithm: sha1WithRSAEncryption
        Issuer: C=ES, ST=Lleida, L=Solsona, O=UOC, OU=UOC, CN=Entitat Certificadora/emailAddress=gfarrasb@uoc.edu
        Validity
            Not Before: Jan  3 17:35:31 2008 GMT
            Not After : Jan  2 17:35:31 2009 GMT
        Subject: C=ES, ST=Lleida, O=UOC, OU=Gestors, CN=Gestor
        Subject Public Key Info:
            Public Key Algorithm: rsaEncryption
            RSA Public Key: (1024 bit)
                Modulus (1024 bit):
                    00:9b:24:ea:ba:70:4e:c1:a7:ca:66:8c:06:10:ba:
                    aa:1a:bd:0c:55:2d:3a:66:c1:09:cc:88:de:d6:5a:
                    26:79:c4:3a:9b:2d:06:f2:ac:67:39:39:b2:93:dd:
                    07:81:6a:50:c0:0f:72:dc:81:62:d7:f4:3e:23:c0:
                    60:b7:17:aa:7c:88:9c:80:6e:aa:2e:d4:fc:83:ea:
                    51:50:a1:5d:5d:f1:17:d9:93:48:31:97:85:56:12:
                    50:7b:12:dc:cb:2b:65:95:27:27:c7:51:dc:11:6f:
                    28:94:83:e7:fc:4d:b5:51:30:a8:ab:ee:61:06:75:
                    ea:2b:5a:06:d8:a7:16:96:c5
                Exponent: 65537 (0x10001)
        X509v3 extensions:
            X509v3 Basic Constraints: 
                CA:FALSE
            Netscape Cert Type: 
                SSL Client, S/MIME
            X509v3 Key Usage: 
                Digital Signature, Non Repudiation, Key Encipherment
            Netscape Comment: 
                Seguretat en Xarxes de Computadors
            X509v3 Subject Key Identifier: 
                5F:BB:5A:3B:C3:69:04:B5:09:F3:22:21:F3:B5:43:4D:F3:6A:7E:9D
            X509v3 Authority Key Identifier: 
                keyid:3C:54:12:76:C5:A3:52:F3:FF:3C:D2:AE:5C:77:7A:0E:75:DC:A7:44
                DirName:/C=ES/ST=Lleida/L=Solsona/O=UOC/OU=UOC/CN=Entitat Certificadora/emailAddress=gfarrasb@uoc.edu
                serial:ED:69:2B:E9:FB:F7:12:27

            X509v3 Subject Alternative Name: 
                <EMPTY>

            X509v3 Issuer Alternative Name: 
                <EMPTY>

    Signature Algorithm: sha1WithRSAEncryption
        8e:2d:7b:4d:e6:da:0b:3f:ba:79:d6:2c:51:9b:4e:8c:94:00:
        60:18:67:fe:f0:02:2d:63:f6:e1:c2:82:ff:c9:dc:e5:56:bf:
        7b:27:b0:e8:d4:a2:3d:7e:07:dc:c8:b5:14:3c:33:62:6b:0f:
        f9:79:f1:dd:2c:de:66:12:5e:3b:79:ea:8d:83:61:0f:ba:b2:
        6f:a1:18:91:22:7b:9c:ea:3e:71:f3:32:b9:3f:7c:64:57:fe:
        b9:0f:67:9e:74:1d:21:f5:f2:06:c5:3b:2a:aa:b2:59:b9:bd:
        3c:7e:75:e7:3e:3f:e2:a2:6d:a6:75:d0:5b:e0:70:c3:13:06:
        05:95:2f:31:3c:57:f4:4b:b4:78:8b:63:66:0e:53:5d:50:51:
        b2:7f:a2:95:bc:a3:08:09:38:48:80:89:a2:68:51:fa:b9:4a:
        51:a4:a8:d5:33:e0:e5:60:b6:a0:64:c5:07:1a:93:41:1b:8b:
        76:90:17:00:bd:fb:91:99:4b:0e:f4:6d:ca:e3:5e:a7:0e:fd:
        cf:5d:7e:98:97:8d:2a:38:16:97:50:73:4f:1a:9d:05:49:f1:
        b7:73:0c:19:b4:be:7c:46:b4:05:05:26:1a:76:af:00:18:7f:
        74:a2:a0:43:e0:ed:b4:d2:32:8e:d9:4c:db:f6:83:06:e6:a0:
        88:ea:bc:a6
-----BEGIN CERTIFICATE-----
MIIEMjCCAxqgAwIBAgIBADANBgkqhkiG9w0BAQUFADCBjTELMAkGA1UEBhMCRVMx
DzANBgNVBAgTBkxsZWlkYTEQMA4GA1UEBxMHU29sc29uYTEMMAoGA1UEChMDVU9D
MQwwCgYDVQQLEwNVT0MxHjAcBgNVBAMTFUVudGl0YXQgQ2VydGlmaWNhZG9yYTEf
MB0GCSqGSIb3DQEJARYQZ2ZhcnJhc2JAdW9jLmVkdTAeFw0wODAxMDMxNzM1MzFa
Fw0wOTAxMDIxNzM1MzFaME8xCzAJBgNVBAYTAkVTMQ8wDQYDVQQIEwZMbGVpZGEx
DDAKBgNVBAoTA1VPQzEQMA4GA1UECxMHR2VzdG9yczEPMA0GA1UEAxMGR2VzdG9y
MIGfMA0GCSqGSIb3DQEBAQUAA4GNADCBiQKBgQCbJOq6cE7Bp8pmjAYQuqoavQxV
LTpmwQnMiN7WWiZ5xDqbLQbyrGc5ObKT3QeBalDAD3LcgWLX9D4jwGC3F6p8iJyA
bqou1PyD6lFQoV1d8RfZk0gxl4VWElB7EtzLK2WVJyfHUdwRbyiUg+f8TbVRMKir
7mEGdeorWgbYpxaWxQIDAQABo4IBXDCCAVgwCQYDVR0TBAIwADARBglghkgBhvhC
AQEEBAMCBaAwCwYDVR0PBAQDAgXgMDEGCWCGSAGG+EIBDQQkFiJTZWd1cmV0YXQg
ZW4gWGFyeGVzIGRlIENvbXB1dGFkb3JzMB0GA1UdDgQWBBRfu1o7w2kEtQnzIiHz
tUNN82p+nTCBwgYDVR0jBIG6MIG3gBQ8VBJ2xaNS8/880q5cd3oOddynRKGBk6SB
kDCBjTELMAkGA1UEBhMCRVMxDzANBgNVBAgTBkxsZWlkYTEQMA4GA1UEBxMHU29s
c29uYTEMMAoGA1UEChMDVU9DMQwwCgYDVQQLEwNVT0MxHjAcBgNVBAMTFUVudGl0
YXQgQ2VydGlmaWNhZG9yYTEfMB0GCSqGSIb3DQEJARYQZ2ZhcnJhc2JAdW9jLmVk
dYIJAO1pK+n79xInMAkGA1UdEQQCMAAwCQYDVR0SBAIwADANBgkqhkiG9w0BAQUF
AAOCAQEAji17TebaCz+6edYsUZtOjJQAYBhn/vACLWP24cKC/8nc5Va/eyew6NSi
PX4H3Mi1FDwzYmsP+Xnx3SzeZhJeO3nqjYNhD7qyb6EYkSJ7nOo+cfMyuT98ZFf+
uQ9nnnQdIfXyBsU7KqqyWbm9PH515z4/4qJtpnXQW+BwwxMGBZUvMTxX9Eu0eItj
Zg5TXVBRsn+ilbyjCAk4SICJomhR+rlKUaSo1TPg5WC2oGTFBxqTQRuLdpAXAL37
kZlLDvRtyuNepw79z11+mJeNKjgWl1BzTxqdBUnxt3MMGbS+fEa0BQUmGnavABh/
dKKgQ+DttNIyjtlM2/aDBuagiOq8pg==
-----END CERTIFICATE-----
