Certificate:
    Data:
        Version: 3 (0x2)
        Serial Number: 1 (0x1)
        Signature Algorithm: sha1WithRSAEncryption
        Issuer: C=ES, ST=Lleida, L=Solsona, O=UOC, OU=UOC, CN=Entitat Certificadora/emailAddress=gfarrasb@uoc.edu
        Validity
            Not Before: Jan  3 18:05:42 2008 GMT
            Not After : Jan  2 18:05:42 2009 GMT
        Subject: C=ES, ST=Lleida, O=UOC, OU=Pacients, CN=Gerard Farr\xC3\xA0s i Ballabriga
        Subject Public Key Info:
            Public Key Algorithm: rsaEncryption
            RSA Public Key: (1024 bit)
                Modulus (1024 bit):
                    00:aa:41:a7:ce:bf:59:cd:8e:3c:10:43:c9:4a:d2:
                    e7:5c:25:87:a0:c9:5e:c7:20:05:9d:fa:3a:b6:ff:
                    9f:45:a9:79:b9:9e:14:05:96:ae:af:ca:87:85:e0:
                    8e:f3:61:82:39:ff:7c:00:18:80:b7:d0:69:fc:ef:
                    07:b1:6d:29:8d:27:16:8f:13:cf:31:9a:ce:01:a0:
                    aa:5c:d2:76:9f:97:0c:cb:5a:07:9f:f5:08:ff:8d:
                    9f:a1:82:7c:8c:9f:20:a3:f6:c0:72:90:51:90:7b:
                    c0:e9:44:ac:1d:cc:c2:0b:38:46:82:b5:a3:76:2b:
                    e3:f0:2d:5e:65:9c:52:40:05
                Exponent: 65537 (0x10001)
        X509v3 extensions:
            X509v3 Basic Constraints: 
                CA:FALSE
            Netscape Cert Type: 
                SSL Client, S/MIME
            X509v3 Key Usage: 
                Digital Signature, Non Repudiation, Key Encipherment
            Netscape Comment: 
                Seguretat en Xarxes de Computadors
            X509v3 Subject Key Identifier: 
                83:68:91:08:27:F6:42:04:1C:22:3F:3A:97:31:CD:E3:42:33:A2:7E
            X509v3 Authority Key Identifier: 
                keyid:3C:54:12:76:C5:A3:52:F3:FF:3C:D2:AE:5C:77:7A:0E:75:DC:A7:44
                DirName:/C=ES/ST=Lleida/L=Solsona/O=UOC/OU=UOC/CN=Entitat Certificadora/emailAddress=gfarrasb@uoc.edu
                serial:ED:69:2B:E9:FB:F7:12:27

            X509v3 Subject Alternative Name: 
                <EMPTY>

            X509v3 Issuer Alternative Name: 
                <EMPTY>

    Signature Algorithm: sha1WithRSAEncryption
        27:5d:ef:0e:a3:ca:e1:79:11:95:03:aa:e1:b9:48:f2:92:7c:
        f2:e2:90:69:85:f2:8a:da:a2:01:b9:91:5a:f9:a0:e9:4c:8c:
        85:9f:3c:7a:b5:e6:5d:95:bd:32:3e:2d:3b:2b:e2:3d:2c:d1:
        86:ac:ec:a9:f7:bf:a0:ba:eb:34:7d:3c:34:cb:28:6b:53:1b:
        05:05:36:4c:0a:8b:88:30:32:7a:d8:2c:98:1d:b2:02:20:d6:
        19:a1:8f:45:5d:a0:eb:59:95:01:d9:64:e3:d3:f8:b9:91:3d:
        20:d0:85:fc:fd:c9:c3:c3:bd:30:dd:85:81:bd:0c:c3:5c:98:
        13:81:ba:c5:e0:bb:42:70:d5:32:35:b8:de:c9:91:e2:3a:8d:
        2c:b1:a5:c0:27:07:06:99:a0:b5:b1:c5:b1:ad:d1:3f:89:66:
        3e:e2:04:ef:e3:4d:dc:0c:7c:fe:ed:d7:b9:23:39:92:e7:b2:
        1b:73:1e:8e:56:aa:a1:2b:c2:65:a3:d7:ce:50:0d:aa:81:2d:
        ee:6e:d0:4c:6c:42:89:e2:bf:c8:66:63:21:e6:6e:60:8a:bf:
        5f:9f:27:8a:82:0f:41:ab:e6:f1:e6:a5:bc:ff:c3:d6:7a:6e:
        bd:9a:b0:06:08:b9:85:54:11:af:0f:82:43:6e:34:e3:5e:e1:
        1c:47:39:d6
-----BEGIN CERTIFICATE-----
MIIESDCCAzCgAwIBAgIBATANBgkqhkiG9w0BAQUFADCBjTELMAkGA1UEBhMCRVMx
DzANBgNVBAgTBkxsZWlkYTEQMA4GA1UEBxMHU29sc29uYTEMMAoGA1UEChMDVU9D
MQwwCgYDVQQLEwNVT0MxHjAcBgNVBAMTFUVudGl0YXQgQ2VydGlmaWNhZG9yYTEf
MB0GCSqGSIb3DQEJARYQZ2ZhcnJhc2JAdW9jLmVkdTAeFw0wODAxMDMxODA1NDJa
Fw0wOTAxMDIxODA1NDJaMGUxCzAJBgNVBAYTAkVTMQ8wDQYDVQQIEwZMbGVpZGEx
DDAKBgNVBAoTA1VPQzERMA8GA1UECxMIUGFjaWVudHMxJDAiBgNVBAMUG0dlcmFy
ZCBGYXJyw6BzIGkgQmFsbGFicmlnYTCBnzANBgkqhkiG9w0BAQEFAAOBjQAwgYkC
gYEAqkGnzr9ZzY48EEPJStLnXCWHoMlexyAFnfo6tv+fRal5uZ4UBZaur8qHheCO
82GCOf98ABiAt9Bp/O8HsW0pjScWjxPPMZrOAaCqXNJ2n5cMy1oHn/UI/42foYJ8
jJ8go/bAcpBRkHvA6USsHczCCzhGgrWjdivj8C1eZZxSQAUCAwEAAaOCAVwwggFY
MAkGA1UdEwQCMAAwEQYJYIZIAYb4QgEBBAQDAgWgMAsGA1UdDwQEAwIF4DAxBglg
hkgBhvhCAQ0EJBYiU2VndXJldGF0IGVuIFhhcnhlcyBkZSBDb21wdXRhZG9yczAd
BgNVHQ4EFgQUg2iRCCf2QgQcIj86lzHN40Izon4wgcIGA1UdIwSBujCBt4AUPFQS
dsWjUvP/PNKuXHd6DnXcp0ShgZOkgZAwgY0xCzAJBgNVBAYTAkVTMQ8wDQYDVQQI
EwZMbGVpZGExEDAOBgNVBAcTB1NvbHNvbmExDDAKBgNVBAoTA1VPQzEMMAoGA1UE
CxMDVU9DMR4wHAYDVQQDExVFbnRpdGF0IENlcnRpZmljYWRvcmExHzAdBgkqhkiG
9w0BCQEWEGdmYXJyYXNiQHVvYy5lZHWCCQDtaSvp+/cSJzAJBgNVHREEAjAAMAkG
A1UdEgQCMAAwDQYJKoZIhvcNAQEFBQADggEBACdd7w6jyuF5EZUDquG5SPKSfPLi
kGmF8oraogG5kVr5oOlMjIWfPHq15l2VvTI+LTsr4j0s0Yas7Kn3v6C66zR9PDTL
KGtTGwUFNkwKi4gwMnrYLJgdsgIg1hmhj0VdoOtZlQHZZOPT+LmRPSDQhfz9ycPD
vTDdhYG9DMNcmBOBusXgu0Jw1TI1uN7JkeI6jSyxpcAnBwaZoLWxxbGt0T+JZj7i
BO/jTdwMfP7t17kjOZLnshtzHo5WqqErwmWj185QDaqBLe5u0ExsQoniv8hmYyHm
bmCKv1+fJ4qCD0Gr5vHmpbz/w9Z6br2asAYIuYVUEa8PgkNuNONe4RxHOdY=
-----END CERTIFICATE-----
