Certificate:
    Data:
        Version: 3 (0x2)
        Serial Number: 2 (0x2)
        Signature Algorithm: sha1WithRSAEncryption
        Issuer: C=ES, ST=Lleida, L=Solsona, O=UOC, OU=UOC, CN=Entitat Certificadora/emailAddress=gfarrasb@uoc.edu
        Validity
            Not Before: Jan  3 18:12:13 2008 GMT
            Not After : Jan  2 18:12:13 2009 GMT
        Subject: C=ES, ST=Lleida, O=UOC, OU=Metges, CN=Josep Vilaseca
        Subject Public Key Info:
            Public Key Algorithm: rsaEncryption
            RSA Public Key: (1024 bit)
                Modulus (1024 bit):
                    00:b8:95:be:b9:f1:9a:d1:52:d7:5a:37:e8:94:30:
                    c4:e8:47:ac:c3:a3:65:91:c3:d6:23:eb:d4:c0:5b:
                    b1:f3:6e:e0:18:d1:66:1f:0a:06:a1:54:6b:8d:aa:
                    d0:b0:e7:6c:1e:f6:75:91:e0:7d:97:c3:b9:6b:37:
                    2a:24:55:a7:2f:09:11:2c:66:b4:ff:1d:11:c4:af:
                    bf:63:cf:1c:93:7a:5d:3c:d2:b6:13:e1:a5:ea:05:
                    e1:10:2c:b8:66:93:7f:40:72:fa:13:f6:b5:a2:32:
                    7e:39:23:49:fd:a2:b0:d5:82:64:a3:d4:bc:0b:81:
                    16:3d:c6:c8:27:8e:76:ac:cf
                Exponent: 65537 (0x10001)
        X509v3 extensions:
            X509v3 Basic Constraints: 
                CA:FALSE
            Netscape Cert Type: 
                SSL Client, S/MIME
            X509v3 Key Usage: 
                Digital Signature, Non Repudiation, Key Encipherment
            Netscape Comment: 
                Seguretat en Xarxes de Computadors
            X509v3 Subject Key Identifier: 
                B3:54:D9:E4:3A:38:14:BA:1A:B6:7B:B3:22:2D:C4:E8:63:46:DB:80
            X509v3 Authority Key Identifier: 
                keyid:3C:54:12:76:C5:A3:52:F3:FF:3C:D2:AE:5C:77:7A:0E:75:DC:A7:44
                DirName:/C=ES/ST=Lleida/L=Solsona/O=UOC/OU=UOC/CN=Entitat Certificadora/emailAddress=gfarrasb@uoc.edu
                serial:ED:69:2B:E9:FB:F7:12:27

            X509v3 Subject Alternative Name: 
                <EMPTY>

            X509v3 Issuer Alternative Name: 
                <EMPTY>

    Signature Algorithm: sha1WithRSAEncryption
        00:57:6f:e1:59:36:77:f6:c9:f4:b6:a3:27:81:58:81:db:29:
        ea:d9:16:6f:9b:ce:07:67:58:95:8a:16:46:d8:c8:df:47:c3:
        39:29:cd:ad:0b:fa:db:77:f7:da:57:ca:29:03:8c:c4:9e:3f:
        7b:2e:03:0c:d1:71:4b:04:ec:24:da:64:e3:7f:ae:88:e5:8f:
        a1:af:57:76:26:e6:21:13:0f:3f:77:fa:a7:8b:43:07:e1:71:
        3d:cc:32:c5:ff:ff:53:da:28:d6:a6:85:13:92:c5:3e:9d:7b:
        e1:22:d7:13:75:07:f2:38:e3:fe:f0:b9:98:bd:68:4e:cd:f9:
        3e:3d:41:d5:4e:94:2b:e4:5b:4c:ee:84:77:1b:09:de:83:9d:
        c9:47:b3:2c:e6:2b:93:be:f4:19:4c:5a:14:0f:18:b5:98:7d:
        72:b9:c2:17:49:43:a8:e4:8a:cb:57:fe:db:ef:53:fa:05:69:
        ed:d3:fa:7e:a5:6b:fa:27:d3:d5:f5:d3:01:8f:aa:5f:a1:88:
        3a:12:ac:78:3c:ee:be:4c:28:4c:ac:0e:94:b8:10:bb:c8:3e:
        c2:2a:60:80:5b:96:52:39:9b:74:54:4d:a9:e8:2c:60:76:a5:
        62:6f:3b:ac:d8:0a:e1:15:18:27:3f:19:3d:7a:5c:c8:45:20:
        27:d0:d9:1c
-----BEGIN CERTIFICATE-----
MIIEOTCCAyGgAwIBAgIBAjANBgkqhkiG9w0BAQUFADCBjTELMAkGA1UEBhMCRVMx
DzANBgNVBAgTBkxsZWlkYTEQMA4GA1UEBxMHU29sc29uYTEMMAoGA1UEChMDVU9D
MQwwCgYDVQQLEwNVT0MxHjAcBgNVBAMTFUVudGl0YXQgQ2VydGlmaWNhZG9yYTEf
MB0GCSqGSIb3DQEJARYQZ2ZhcnJhc2JAdW9jLmVkdTAeFw0wODAxMDMxODEyMTNa
Fw0wOTAxMDIxODEyMTNaMFYxCzAJBgNVBAYTAkVTMQ8wDQYDVQQIEwZMbGVpZGEx
DDAKBgNVBAoTA1VPQzEPMA0GA1UECxMGTWV0Z2VzMRcwFQYDVQQDEw5Kb3NlcCBW
aWxhc2VjYTCBnzANBgkqhkiG9w0BAQEFAAOBjQAwgYkCgYEAuJW+ufGa0VLXWjfo
lDDE6Eesw6NlkcPWI+vUwFux827gGNFmHwoGoVRrjarQsOdsHvZ1keB9l8O5azcq
JFWnLwkRLGa0/x0RxK+/Y88ck3pdPNK2E+Gl6gXhECy4ZpN/QHL6E/a1ojJ+OSNJ
/aKw1YJko9S8C4EWPcbIJ452rM8CAwEAAaOCAVwwggFYMAkGA1UdEwQCMAAwEQYJ
YIZIAYb4QgEBBAQDAgWgMAsGA1UdDwQEAwIF4DAxBglghkgBhvhCAQ0EJBYiU2Vn
dXJldGF0IGVuIFhhcnhlcyBkZSBDb21wdXRhZG9yczAdBgNVHQ4EFgQUs1TZ5Do4
FLoatnuzIi3E6GNG24AwgcIGA1UdIwSBujCBt4AUPFQSdsWjUvP/PNKuXHd6DnXc
p0ShgZOkgZAwgY0xCzAJBgNVBAYTAkVTMQ8wDQYDVQQIEwZMbGVpZGExEDAOBgNV
BAcTB1NvbHNvbmExDDAKBgNVBAoTA1VPQzEMMAoGA1UECxMDVU9DMR4wHAYDVQQD
ExVFbnRpdGF0IENlcnRpZmljYWRvcmExHzAdBgkqhkiG9w0BCQEWEGdmYXJyYXNi
QHVvYy5lZHWCCQDtaSvp+/cSJzAJBgNVHREEAjAAMAkGA1UdEgQCMAAwDQYJKoZI
hvcNAQEFBQADggEBAABXb+FZNnf2yfS2oyeBWIHbKerZFm+bzgdnWJWKFkbYyN9H
wzkpza0L+tt399pXyikDjMSeP3suAwzRcUsE7CTaZON/rojlj6GvV3Ym5iETDz93
+qeLQwfhcT3MMsX//1PaKNamhROSxT6de+Ei1xN1B/I44/7wuZi9aE7N+T49QdVO
lCvkW0zuhHcbCd6DnclHsyzmK5O+9BlMWhQPGLWYfXK5whdJQ6jkistX/tvvU/oF
ae3T+n6la/on09X10wGPql+hiDoSrHg87r5MKEysDpS4ELvIPsIqYIBbllI5m3RU
TanoLGB2pWJvO6zYCuEVGCc/GT16XMhFICfQ2Rw=
-----END CERTIFICATE-----
